target datalayout = "e-m:e-p270:32:32-p271:32:32-p272:64:64-i64:64-i128:128-f80:128-n8:16:32:64-S128"
target triple = "x86_64-pc-linux-gnu"

%struct.quic_conn_st = type { %struct.quic_obj_st, ptr, ptr, ptr, ptr, ptr, ptr, ptr, ptr, %union.bio_addr_st, %struct.quic_thread_assist_st, i64, i16, i32, i32, i64, i32, i64, i32 }
%struct.quic_obj_st = type { %struct.ssl_st, ptr, ptr, ptr, ptr, ptr, i64, i8 }
%struct.ssl_st = type { i32, ptr, ptr, ptr, %struct.CRYPTO_REF_COUNT, ptr, %struct.crypto_ex_data_st }
%struct.CRYPTO_REF_COUNT = type { i32 }
%struct.crypto_ex_data_st = type { ptr, ptr }
%union.bio_addr_st = type { %struct.sockaddr_in6, [84 x i8] }
%struct.sockaddr_in6 = type { i16, i16, i32, %struct.in6_addr, i32 }
%struct.in6_addr = type { %union.anon }
%union.anon = type { [4 x i32] }
%struct.quic_thread_assist_st = type { ptr, ptr, ptr, i32, i32 }
%struct.OSSL_TIME = type { i64 }
%struct.qctx_st = type { ptr, ptr, ptr, ptr, ptr, i32, i32, i32, i32 }
%struct.quic_xso_st = type { %struct.quic_obj_st, ptr, ptr, i8, ptr, i64, i64, i32, i64, i32 }
%struct.quic_stream_st = type { %struct.quic_stream_list_node_st, %struct.quic_stream_list_node_st, %struct.quic_stream_list_node_st, ptr, i64, i64, i64, i64, i64, i64, i64, ptr, ptr, %struct.quic_txfc_st, %struct.quic_rxfc_st, i64 }
%struct.quic_stream_list_node_st = type { ptr, ptr }
%struct.quic_txfc_st = type { ptr, i64, i64, i8 }
%struct.quic_rxfc_st = type { i64, i64, i64, i64, i64, i64, i64, %struct.OSSL_TIME, ptr, ptr, ptr, i8, i8, i8, i8 }

; Function Attrs: inlinehint nounwind uwtable
define internal ptr @ossl_quic_obj_get0_engine(ptr noundef %0) #3 {
  %2 = alloca ptr, align 8
  store ptr %0, ptr %2, align 8, !tbaa !172
  %3 = load ptr, ptr %2, align 8, !tbaa !172
  %4 = getelementptr inbounds nuw %struct.quic_obj_st, ptr %3, i32 0, i32 4
  %5 = load ptr, ptr %4, align 8, !tbaa !168
  ret ptr %5
}

; Function Attrs: inlinehint nounwind uwtable
define internal ptr @ossl_quic_obj_get0_mutex(ptr noundef %0) #3 {
  %2 = alloca ptr, align 8
  store ptr %0, ptr %2, align 8, !tbaa !172
  %3 = load ptr, ptr %2, align 8, !tbaa !172
  %4 = call ptr @ossl_quic_obj_get0_engine(ptr noundef %3)
  %5 = call ptr @ossl_quic_engine_get0_mutex(ptr noundef %4)
  ret ptr %5
}

; Function Attrs: nounwind uwtable
define internal void @qctx_unlock(ptr noundef %0) #0 {
  %2 = alloca ptr, align 8
  store ptr %0, ptr %2, align 8, !tbaa !119
  %3 = load ptr, ptr %2, align 8, !tbaa !119
  %4 = getelementptr inbounds nuw %struct.qctx_st, ptr %3, i32 0, i32 0
  %5 = load ptr, ptr %4, align 8, !tbaa !166
  %6 = call ptr @ossl_quic_obj_get0_mutex(ptr noundef %5)
  call void @ossl_crypto_mutex_unlock(ptr noundef %6)
  ret void
}

; Function Attrs: nounwind uwtable
define internal void @xso_update_options(ptr noundef %0) #0 {
  %2 = alloca ptr, align 8
  %3 = alloca i32, align 4
  store ptr %0, ptr %2, align 8, !tbaa !156
  call void @llvm.lifetime.start.p0(i64 4, ptr %3) #10
  %4 = load ptr, ptr %2, align 8, !tbaa !156
  %5 = getelementptr inbounds nuw %struct.quic_xso_st, ptr %4, i32 0, i32 8
  %6 = load i64, ptr %5, align 8, !tbaa !170
  %7 = and i64 %6, 2
  %8 = icmp ne i64 %7, 0
  %9 = zext i1 %8 to i32
  store i32 %9, ptr %3, align 4, !tbaa !122
  %10 = load ptr, ptr %2, align 8, !tbaa !156
  %11 = getelementptr inbounds nuw %struct.quic_xso_st, ptr %10, i32 0, i32 2
  %12 = load ptr, ptr %11, align 8, !tbaa !142
  %13 = getelementptr inbounds nuw %struct.quic_stream_st, ptr %12, i32 0, i32 12
  %14 = load ptr, ptr %13, align 8, !tbaa !295
  %15 = icmp ne ptr %14, null
  br i1 %15, label %16, label %23

16:                                               ; preds = %1
  %17 = load ptr, ptr %2, align 8, !tbaa !156
  %18 = getelementptr inbounds nuw %struct.quic_xso_st, ptr %17, i32 0, i32 2
  %19 = load ptr, ptr %18, align 8, !tbaa !142
  %20 = getelementptr inbounds nuw %struct.quic_stream_st, ptr %19, i32 0, i32 12
  %21 = load ptr, ptr %20, align 8, !tbaa !295
  %22 = load i32, ptr %3, align 4, !tbaa !122
  call void @ossl_quic_rstream_set_cleanse(ptr noundef %21, i32 noundef %22)
  br label %23

23:                                               ; preds = %16, %1
  %24 = load ptr, ptr %2, align 8, !tbaa !156
  %25 = getelementptr inbounds nuw %struct.quic_xso_st, ptr %24, i32 0, i32 2
  %26 = load ptr, ptr %25, align 8, !tbaa !142
  %27 = getelementptr inbounds nuw %struct.quic_stream_st, ptr %26, i32 0, i32 11
  %28 = load ptr, ptr %27, align 8, !tbaa !145
  %29 = icmp ne ptr %28, null
  br i1 %29, label %30, label %37

30:                                               ; preds = %23
  %31 = load ptr, ptr %2, align 8, !tbaa !156
  %32 = getelementptr inbounds nuw %struct.quic_xso_st, ptr %31, i32 0, i32 2
  %33 = load ptr, ptr %32, align 8, !tbaa !142
  %34 = getelementptr inbounds nuw %struct.quic_stream_st, ptr %33, i32 0, i32 11
  %35 = load ptr, ptr %34, align 8, !tbaa !145
  %36 = load i32, ptr %3, align 4, !tbaa !122
  call void @ossl_quic_sstream_set_cleanse(ptr noundef %35, i32 noundef %36)
  br label %37

37:                                               ; preds = %30, %23
  call void @llvm.lifetime.end.p0(i64 4, ptr %3) #10
  ret void
}

; Function Attrs: nounwind uwtable
define internal void @qctx_lock(ptr noundef %0) #0 {
  %2 = alloca ptr, align 8
  store ptr %0, ptr %2, align 8, !tbaa !119
  %3 = load ptr, ptr %2, align 8, !tbaa !119
  %4 = getelementptr inbounds nuw %struct.qctx_st, ptr %3, i32 0, i32 0
  %5 = load ptr, ptr %4, align 8, !tbaa !166
  %6 = call ptr @ossl_quic_obj_get0_mutex(ptr noundef %5)
  call void @ossl_crypto_mutex_lock(ptr noundef %6)
  ret void
}

; Function Attrs: nounwind uwtable
define internal i32 @expect_quic_cs(ptr noundef %0, ptr noundef %1) #0 {
  %3 = alloca ptr, align 8
  %4 = alloca ptr, align 8
  store ptr %0, ptr %3, align 8, !tbaa !136
  store ptr %1, ptr %4, align 8, !tbaa !119
  %5 = load ptr, ptr %3, align 8, !tbaa !136
  %6 = load ptr, ptr %4, align 8, !tbaa !119
  %7 = call i32 @expect_quic_as(ptr noundef %5, ptr noundef %6, i32 noundef 3)
  ret i32 %7
}

; Function Attrs: nounwind uwtable
define internal i64 @quic_mask_or_options(ptr noundef %0, i64 noundef %1, i64 noundef %2) #0 {
  %4 = alloca i64, align 8
  %5 = alloca ptr, align 8
  %6 = alloca i64, align 8
  %7 = alloca i64, align 8
  %8 = alloca %struct.qctx_st, align 8
  %9 = alloca i64, align 8
  %10 = alloca i64, align 8
  %11 = alloca i64, align 8
  %12 = alloca i32, align 4
  store ptr %0, ptr %5, align 8, !tbaa !136
  store i64 %1, ptr %6, align 8, !tbaa !169
  store i64 %2, ptr %7, align 8, !tbaa !169
  call void @llvm.lifetime.start.p0(i64 56, ptr %8) #10
  call void @llvm.lifetime.start.p0(i64 8, ptr %9) #10
  call void @llvm.lifetime.start.p0(i64 8, ptr %10) #10
  call void @llvm.lifetime.start.p0(i64 8, ptr %11) #10
  %13 = load ptr, ptr %5, align 8, !tbaa !136
  %14 = call i32 @expect_quic_cs(ptr noundef %13, ptr noundef %8)
  %15 = icmp ne i32 %14, 0
  br i1 %15, label %17, label %16

16:                                               ; preds = %3
  store i64 0, ptr %4, align 8
  store i32 1, ptr %12, align 4
  br label %88

17:                                               ; preds = %3
  call void @qctx_lock(ptr noundef %8)
  %18 = getelementptr inbounds nuw %struct.qctx_st, ptr %8, i32 0, i32 5
  %19 = load i32, ptr %18, align 8, !tbaa !139
  %20 = icmp ne i32 %19, 0
  br i1 %20, label %51, label %21

21:                                               ; preds = %17
  %22 = load i64, ptr %6, align 8, !tbaa !169
  %23 = and i64 %22, 16633559941
  store i64 %23, ptr %9, align 8, !tbaa !169
  %24 = load i64, ptr %7, align 8, !tbaa !169
  %25 = and i64 %24, 16633559941
  store i64 %25, ptr %10, align 8, !tbaa !169
  %26 = getelementptr inbounds nuw %struct.qctx_st, ptr %8, i32 0, i32 3
  %27 = load ptr, ptr %26, align 8, !tbaa !123
  %28 = getelementptr inbounds nuw %struct.quic_conn_st, ptr %27, i32 0, i32 1
  %29 = load ptr, ptr %28, align 8, !tbaa !35
  %30 = load i64, ptr %9, align 8, !tbaa !169
  %31 = call i64 @SSL_clear_options(ptr noundef %29, i64 noundef %30)
  %32 = getelementptr inbounds nuw %struct.qctx_st, ptr %8, i32 0, i32 3
  %33 = load ptr, ptr %32, align 8, !tbaa !123
  %34 = getelementptr inbounds nuw %struct.quic_conn_st, ptr %33, i32 0, i32 1
  %35 = load ptr, ptr %34, align 8, !tbaa !35
  %36 = load i64, ptr %10, align 8, !tbaa !169
  %37 = call i64 @SSL_set_options(ptr noundef %35, i64 noundef %36)
  %38 = getelementptr inbounds nuw %struct.qctx_st, ptr %8, i32 0, i32 3
  %39 = load ptr, ptr %38, align 8, !tbaa !123
  %40 = getelementptr inbounds nuw %struct.quic_conn_st, ptr %39, i32 0, i32 15
  %41 = load i64, ptr %40, align 8, !tbaa !116
  %42 = load i64, ptr %6, align 8, !tbaa !169
  %43 = xor i64 %42, -1
  %44 = and i64 %41, %43
  %45 = load i64, ptr %7, align 8, !tbaa !169
  %46 = or i64 %44, %45
  %47 = and i64 %46, 16633559943
  %48 = getelementptr inbounds nuw %struct.qctx_st, ptr %8, i32 0, i32 3
  %49 = load ptr, ptr %48, align 8, !tbaa !123
  %50 = getelementptr inbounds nuw %struct.quic_conn_st, ptr %49, i32 0, i32 15
  store i64 %47, ptr %50, align 8, !tbaa !116
  br label %51

51:                                               ; preds = %21, %17
  %52 = getelementptr inbounds nuw %struct.qctx_st, ptr %8, i32 0, i32 4
  %53 = load ptr, ptr %52, align 8, !tbaa !141
  %54 = icmp ne ptr %53, null
  br i1 %54, label %55, label %71

55:                                               ; preds = %51
  %56 = getelementptr inbounds nuw %struct.qctx_st, ptr %8, i32 0, i32 4
  %57 = load ptr, ptr %56, align 8, !tbaa !141
  %58 = getelementptr inbounds nuw %struct.quic_xso_st, ptr %57, i32 0, i32 8
  %59 = load i64, ptr %58, align 8, !tbaa !170
  %60 = load i64, ptr %6, align 8, !tbaa !169
  %61 = xor i64 %60, -1
  %62 = and i64 %59, %61
  %63 = load i64, ptr %7, align 8, !tbaa !169
  %64 = or i64 %62, %63
  %65 = and i64 %64, 3725568391
  %66 = getelementptr inbounds nuw %struct.qctx_st, ptr %8, i32 0, i32 4
  %67 = load ptr, ptr %66, align 8, !tbaa !141
  %68 = getelementptr inbounds nuw %struct.quic_xso_st, ptr %67, i32 0, i32 8
  store i64 %65, ptr %68, align 8, !tbaa !170
  %69 = getelementptr inbounds nuw %struct.qctx_st, ptr %8, i32 0, i32 4
  %70 = load ptr, ptr %69, align 8, !tbaa !141
  call void @xso_update_options(ptr noundef %70)
  br label %71

71:                                               ; preds = %55, %51
  %72 = getelementptr inbounds nuw %struct.qctx_st, ptr %8, i32 0, i32 5
  %73 = load i32, ptr %72, align 8, !tbaa !139
  %74 = icmp ne i32 %73, 0
  br i1 %74, label %75, label %80

75:                                               ; preds = %71
  %76 = getelementptr inbounds nuw %struct.qctx_st, ptr %8, i32 0, i32 4
  %77 = load ptr, ptr %76, align 8, !tbaa !141
  %78 = getelementptr inbounds nuw %struct.quic_xso_st, ptr %77, i32 0, i32 8
  %79 = load i64, ptr %78, align 8, !tbaa !170
  br label %85

80:                                               ; preds = %71
  %81 = getelementptr inbounds nuw %struct.qctx_st, ptr %8, i32 0, i32 3
  %82 = load ptr, ptr %81, align 8, !tbaa !123
  %83 = getelementptr inbounds nuw %struct.quic_conn_st, ptr %82, i32 0, i32 15
  %84 = load i64, ptr %83, align 8, !tbaa !116
  br label %85

85:                                               ; preds = %80, %75
  %86 = phi i64 [ %79, %75 ], [ %84, %80 ]
  store i64 %86, ptr %11, align 8, !tbaa !169
  call void @qctx_unlock(ptr noundef %8)
  %87 = load i64, ptr %11, align 8, !tbaa !169
  store i64 %87, ptr %4, align 8
  store i32 1, ptr %12, align 4
  br label %88

88:                                               ; preds = %85, %16
  call void @llvm.lifetime.end.p0(i64 8, ptr %11) #10
  call void @llvm.lifetime.end.p0(i64 8, ptr %10) #10
  call void @llvm.lifetime.end.p0(i64 8, ptr %9) #10
  call void @llvm.lifetime.end.p0(i64 56, ptr %8) #10
  %89 = load i64, ptr %4, align 8
  ret i64 %89
}