; Function Attrs: nounwind uwtable
define internal fastcc i64 @quic_mask_or_options(ptr noundef %0, i64 noundef %1, i64 noundef %2) unnamed_addr #0 {
  %4 = alloca %struct.qctx_st, align 8
  call void @llvm.lifetime.start.p0(i64 56, ptr nonnull %4) #12
  %5 = call fastcc range(i32 0, 2) i32 @expect_quic_as(ptr noundef %0, ptr noundef nonnull %4, i32 noundef 3)
  %.not = icmp eq i32 %5, 0
  br i1 %.not, label %62, label %6

6:                                                ; preds = %3
  %.val = load ptr, ptr %4, align 8, !tbaa !157
  %7 = getelementptr i8, ptr %.val, i64 88
  %.val.val = load ptr, ptr %7, align 8, !tbaa !143
  %8 = call ptr @ossl_quic_engine_get0_mutex(ptr noundef %.val.val) #12
  call void @ossl_crypto_mutex_lock(ptr noundef %8) #12
  %9 = getelementptr inbounds nuw i8, ptr %4, i64 40
  %10 = load i32, ptr %9, align 8, !tbaa !129
  %.not11 = icmp eq i32 %10, 0
  br i1 %.not11, label %11, label %30

11:                                               ; preds = %6
  %12 = and i64 %1, 16633559941
  %13 = and i64 %2, 16633559941
  %14 = getelementptr inbounds nuw i8, ptr %4, i64 24
  %15 = load ptr, ptr %14, align 8, !tbaa !134
  %16 = getelementptr inbounds nuw i8, ptr %15, i64 120
  %17 = load ptr, ptr %16, align 8, !tbaa !30
  %18 = call i64 @SSL_clear_options(ptr noundef %17, i64 noundef %12) #12
  %19 = load ptr, ptr %14, align 8, !tbaa !134
  %20 = getelementptr inbounds nuw i8, ptr %19, i64 120
  %21 = load ptr, ptr %20, align 8, !tbaa !30
  %22 = call i64 @SSL_set_options(ptr noundef %21, i64 noundef %13) #12
  %23 = load ptr, ptr %14, align 8, !tbaa !134
  %24 = getelementptr inbounds nuw i8, ptr %23, i64 352
  %25 = load i64, ptr %24, align 8, !tbaa !121
  %26 = xor i64 %1, -1
  %27 = and i64 %25, %26
  %28 = or i64 %27, %2
  %29 = and i64 %28, 16633559943
  store i64 %29, ptr %24, align 8, !tbaa !121
  br label %30

30:                                               ; preds = %11, %6
  %31 = getelementptr inbounds nuw i8, ptr %4, i64 32
  %32 = load ptr, ptr %31, align 8, !tbaa !130
  %.not12 = icmp eq ptr %32, null
  br i1 %.not12, label %xso_update_options.exit, label %33

33:                                               ; preds = %30
  %34 = getelementptr inbounds nuw i8, ptr %32, i64 176
  %35 = load i64, ptr %34, align 8, !tbaa !158
  %36 = xor i64 %1, -1
  %37 = and i64 %35, %36
  %38 = or i64 %37, %2
  %39 = and i64 %38, 3725568391
  store i64 %39, ptr %34, align 8, !tbaa !158
  %40 = trunc i64 %38 to i32
  %41 = lshr i32 %40, 1
  %42 = and i32 %41, 1
  %43 = getelementptr inbounds nuw i8, ptr %32, i64 128
  %44 = load ptr, ptr %43, align 8, !tbaa !145
  %45 = getelementptr inbounds nuw i8, ptr %44, i64 120
  %46 = load ptr, ptr %45, align 8, !tbaa !159
  %.not.i = icmp eq ptr %46, null
  br i1 %.not.i, label %48, label %47

47:                                               ; preds = %33
  call void @ossl_quic_rstream_set_cleanse(ptr noundef nonnull %46, i32 noundef %42) #12
  %.pre.i = load ptr, ptr %43, align 8, !tbaa !145
  br label %48

48:                                               ; preds = %47, %33
  %49 = phi ptr [ %.pre.i, %47 ], [ %44, %33 ]
  %50 = getelementptr inbounds nuw i8, ptr %49, i64 112
  %51 = load ptr, ptr %50, align 8, !tbaa !146
  %.not7.i = icmp eq ptr %51, null
  br i1 %.not7.i, label %xso_update_options.exit, label %52

52:                                               ; preds = %48
  call void @ossl_quic_sstream_set_cleanse(ptr noundef nonnull %51, i32 noundef %42) #12
  br label %xso_update_options.exit

xso_update_options.exit:                          ; preds = %52, %48, %30
  %53 = load i32, ptr %9, align 8, !tbaa !129
  %.not13 = icmp eq i32 %53, 0
  %54 = load ptr, ptr %31, align 8
  %55 = getelementptr inbounds nuw i8, ptr %54, i64 176
  %56 = getelementptr inbounds nuw i8, ptr %4, i64 24
  %57 = load ptr, ptr %56, align 8
  %58 = getelementptr inbounds nuw i8, ptr %57, i64 352
  %.in = select i1 %.not13, ptr %58, ptr %55
  %59 = load i64, ptr %.in, align 8, !tbaa !160
  %.val14 = load ptr, ptr %4, align 8, !tbaa !157
  %60 = getelementptr i8, ptr %.val14, i64 88
  %.val14.val = load ptr, ptr %60, align 8, !tbaa !143
  %61 = call ptr @ossl_quic_engine_get0_mutex(ptr noundef %.val14.val) #12
  call void @ossl_crypto_mutex_unlock(ptr noundef %61) #12
  br label %62

62:                                               ; preds = %3, %xso_update_options.exit
  %.0 = phi i64 [ %59, %xso_update_options.exit ], [ 0, %3 ]
  call void @llvm.lifetime.end.p0(i64 56, ptr nonnull %4) #12
  ret i64 %.0
}